; Function Attrs: nounwind uwtable
define hidden ptr @lxb_selectors_destroy(ptr noundef %0, i1 noundef zeroext %1) local_unnamed_addr #0 {
  %3 = icmp eq ptr %0, null
  br i1 %3, label %12, label %4

4:                                                ; preds = %2
  %5 = load ptr, ptr %0, align 8
  %6 = tail call ptr @lexbor_dobject_destroy(ptr noundef %5, i1 noundef zeroext true) #6
  store ptr %6, ptr %0, align 8
  %7 = getelementptr inbounds i8, ptr %0, i64 8
  %8 = load ptr, ptr %7, align 8
  %9 = tail call ptr @lexbor_dobject_destroy(ptr noundef %8, i1 noundef zeroext true) #6
  store ptr %9, ptr %7, align 8
  br i1 %1, label %10, label %12

10:                                               ; preds = %4
  %11 = tail call ptr @lexbor_free(ptr noundef nonnull %0) #6
  br label %12

12:                                               ; preds = %4, %2, %10
  %.0 = phi ptr [ %11, %10 ], [ null, %2 ], [ %0, %4 ]
  ret ptr %.0
}